; ModuleID = 'bench/gromacs/original/sgetrs.cpp.ll'
source_filename = "bench/gromacs/original/sgetrs.cpp.ll"
target datalayout = "e-m:e-p270:32:32-p271:32:32-p272:64:64-i64:64-i128:128-f80:128-n8:16:32:64-S128"
target triple = "x86_64-pc-linux-gnu"

@.str = private unnamed_addr constant [5 x i8] c"Left\00", align 1
@.str.1 = private unnamed_addr constant [6 x i8] c"Lower\00", align 1
@.str.2 = private unnamed_addr constant [13 x i8] c"No transpose\00", align 1
@.str.3 = private unnamed_addr constant [5 x i8] c"Unit\00", align 1
@.str.4 = private unnamed_addr constant [6 x i8] c"Upper\00", align 1
@.str.5 = private unnamed_addr constant [9 x i8] c"Non-unit\00", align 1
@.str.6 = private unnamed_addr constant [10 x i8] c"Transpose\00", align 1

; Function Attrs: mustprogress uwtable
define void @sgetrs_(ptr nocapture noundef readonly %0, ptr noundef %1, ptr noundef %2, ptr noundef %3, ptr noundef %4, ptr noundef %5, ptr noundef %6, ptr noundef %7, ptr nocapture noundef writeonly %8) local_unnamed_addr #0 {
  %10 = alloca i32, align 4
  %11 = alloca i32, align 4
  %12 = alloca float, align 4
  store i32 1, ptr %10, align 4
  store i32 -1, ptr %11, align 4
  store float 1.000000e+00, ptr %12, align 4
  store i32 0, ptr %8, align 4
  %13 = load i8, ptr %0, align 1
  %14 = load i32, ptr %1, align 4
  %15 = icmp slt i32 %14, 1
  br i1 %15, label %22, label %16

16:                                               ; preds = %9
  %17 = load i32, ptr %2, align 4
  %18 = icmp slt i32 %17, 1
  br i1 %18, label %22, label %19

19:                                               ; preds = %16
  switch i8 %13, label %21 [
    i8 110, label %20
    i8 78, label %20
  ]

20:                                               ; preds = %19, %19
  call void @slaswp_(ptr noundef nonnull %2, ptr noundef %6, ptr noundef %7, ptr noundef nonnull %10, ptr noundef nonnull %1, ptr noundef %5, ptr noundef nonnull %10)
  call void @strsm_(ptr noundef nonnull @.str, ptr noundef nonnull @.str.1, ptr noundef nonnull @.str.2, ptr noundef nonnull @.str.3, ptr noundef nonnull %1, ptr noundef nonnull %2, ptr noundef nonnull %12, ptr noundef %3, ptr noundef %4, ptr noundef %6, ptr noundef %7)
  call void @strsm_(ptr noundef nonnull @.str, ptr noundef nonnull @.str.4, ptr noundef nonnull @.str.2, ptr noundef nonnull @.str.5, ptr noundef nonnull %1, ptr noundef nonnull %2, ptr noundef nonnull %12, ptr noundef %3, ptr noundef %4, ptr noundef %6, ptr noundef %7)
  br label %22

21:                                               ; preds = %19
  call void @strsm_(ptr noundef nonnull @.str, ptr noundef nonnull @.str.4, ptr noundef nonnull @.str.6, ptr noundef nonnull @.str.5, ptr noundef nonnull %1, ptr noundef nonnull %2, ptr noundef nonnull %12, ptr noundef %3, ptr noundef nonnull %4, ptr noundef %6, ptr noundef nonnull %7)
  call void @strsm_(ptr noundef nonnull @.str, ptr noundef nonnull @.str.1, ptr noundef nonnull @.str.6, ptr noundef nonnull @.str.3, ptr noundef nonnull %1, ptr noundef nonnull %2, ptr noundef nonnull %12, ptr noundef %3, ptr noundef nonnull %4, ptr noundef %6, ptr noundef nonnull %7)
  call void @slaswp_(ptr noundef nonnull %2, ptr noundef %6, ptr noundef nonnull %7, ptr noundef nonnull %10, ptr noundef nonnull %1, ptr noundef %5, ptr noundef nonnull %11)
  br label %22

22:                                               ; preds = %20, %21, %9, %16
  ret void
}

declare void @slaswp_(ptr noundef, ptr noundef, ptr noundef, ptr noundef, ptr noundef, ptr noundef, ptr noundef) local_unnamed_addr #1

declare void @strsm_(ptr noundef, ptr noundef, ptr noundef, ptr noundef, ptr noundef, ptr noundef, ptr noundef, ptr noundef, ptr noundef, ptr noundef, ptr noundef) local_unnamed_addr #1


!llvm.module.flags = !{!0, !1, !2, !3}

!0 = !{i32 1, !"wchar_size", i32 4}
!1 = !{i32 8, !"PIC Level", i32 2}
!2 = !{i32 7, !"uwtable", i32 2}
!3 = !{i32 7, !"frame-pointer", i32 2}
